Certificate:
    Data:
        Version: 3 (0x2)
        Serial Number: 0 (0x0)
        Signature Algorithm: sha256WithRSAEncryption
        Issuer: C=CN, ST=GS, L=LZ, O=LZUiversity, OU=ETS, CN=RootCA/emailAddress=RootCA@lzu.cn
        Validity
            Not Before: Oct 20 14:01:51 2019 GMT
            Not After : Oct 19 14:01:51 2020 GMT
        Subject: C=CN, ST=GS, O=LZUiversity, OU=ETS, CN=Server/emailAddress=RootCA@lzu.cn
        Subject Public Key Info:
            Public Key Algorithm: rsaEncryption
                RSA Public-Key: (2048 bit)
                Modulus:
                    00:c9:3b:c3:39:9e:9a:78:02:1e:b0:fa:73:07:e3:
                    e9:e2:87:52:1b:9f:05:7b:4b:53:19:08:2d:0e:3d:
                    16:2e:05:84:c8:46:6d:68:94:99:af:bc:d7:c2:7b:
                    ab:cb:d3:b6:52:3c:f8:10:af:b9:bf:10:6e:bd:ad:
                    2f:65:6f:43:e8:91:95:74:0a:4e:6d:2d:06:fa:7c:
                    53:40:7d:4b:87:ee:73:b1:79:8c:44:32:75:c8:b2:
                    8f:e6:c2:41:a9:8a:f9:93:31:6d:44:54:4e:4d:5c:
                    5e:c6:3f:e5:dd:24:c0:98:ec:ef:23:33:c2:9b:85:
                    04:2b:15:49:25:a1:96:23:4a:8c:27:34:0e:64:5b:
                    9e:d1:1e:73:8a:2d:d6:d3:d2:fd:78:a8:f7:3f:d9:
                    f6:33:d8:b7:e6:a0:c0:79:35:ec:96:c9:cc:0b:31:
                    4b:66:bf:9f:52:5c:c3:26:07:5f:bd:6d:71:69:14:
                    6f:13:c3:cf:b1:c1:aa:9d:8f:a1:7b:fa:f4:9d:a8:
                    2f:fb:e4:de:fe:0f:7f:1f:d3:7d:39:aa:82:30:ae:
                    0f:50:12:bb:c4:13:b0:f3:35:c1:2f:50:b6:54:fa:
                    f6:8b:96:1e:e1:2a:1b:b2:78:3e:a8:84:bd:4a:cb:
                    41:b7:30:49:c3:03:db:46:86:72:a5:3c:4b:61:65:
                    3f:09
                Exponent: 65537 (0x10001)
        X509v3 extensions:
            X509v3 Basic Constraints: 
                CA:FALSE
            Netscape Comment: 
                OpenSSL Generated Certificate
            X509v3 Subject Key Identifier: 
                91:67:F9:69:60:65:87:B6:0E:01:50:B5:2F:7B:C6:D7:35:92:A8:78
            X509v3 Authority Key Identifier: 
                keyid:AB:9F:D2:C5:CF:B3:91:EC:6E:DA:E1:A5:05:AB:1D:8D:E9:0F:F3:9C

    Signature Algorithm: sha256WithRSAEncryption
         86:b0:3a:22:07:e4:6a:7f:c3:74:f6:01:85:88:44:58:a5:ef:
         f9:73:42:35:e1:c5:22:4a:6f:45:08:51:f2:0d:30:df:bc:70:
         ed:f7:b3:92:c7:98:7c:9b:fc:9e:21:2f:a3:2f:04:a6:af:04:
         3a:8c:a9:86:b0:93:10:90:b8:25:81:1a:34:3a:f5:ea:44:90:
         c3:21:bc:84:ce:f1:e4:a2:69:85:70:00:b0:8e:11:ed:d1:a2:
         c6:d1:ce:e1:c0:0c:3c:41:71:a1:f9:23:84:1e:db:37:b6:90:
         5f:59:88:9d:c0:41:8b:50:d2:4d:cf:5d:5d:10:c8:4f:e1:26:
         e7:59:e8:f8:7d:79:c3:8c:e4:9a:5c:e0:90:8f:5f:86:5e:73:
         c0:33:d4:be:7d:75:3e:6a:86:e4:01:7e:82:63:2b:09:fa:e2:
         31:39:9c:84:d4:7f:ff:c2:b2:ed:4e:14:43:65:ad:a2:0d:19:
         3f:3c:1a:08:ea:07:6c:20:a8:e0:ca:2d:68:2f:fb:6f:30:e5:
         87:35:6a:4c:aa:e6:83:6d:3a:7d:e9:fc:e8:11:74:d2:f7:e4:
         0a:3d:42:3f:af:15:4e:43:69:57:90:47:db:1b:0b:9b:f5:9a:
         db:32:50:4b:c2:6e:ae:d1:c7:b6:e9:10:e9:55:01:ee:b0:90:
         49:49:9d:6b
-----BEGIN CERTIFICATE-----
MIID3TCCAsWgAwIBAgIBADANBgkqhkiG9w0BAQsFADB6MQswCQYDVQQGEwJDTjEL
MAkGA1UECAwCR1MxCzAJBgNVBAcMAkxaMRQwEgYDVQQKDAtMWlVpdmVyc2l0eTEM
MAoGA1UECwwDRVRTMQ8wDQYDVQQDDAZSb290Q0ExHDAaBgkqhkiG9w0BCQEWDVJv
b3RDQUBsenUuY24wHhcNMTkxMDIwMTQwMTUxWhcNMjAxMDE5MTQwMTUxWjBtMQsw
CQYDVQQGEwJDTjELMAkGA1UECAwCR1MxFDASBgNVBAoMC0xaVWl2ZXJzaXR5MQww
CgYDVQQLDANFVFMxDzANBgNVBAMMBlNlcnZlcjEcMBoGCSqGSIb3DQEJARYNUm9v
dENBQGx6dS5jbjCCASIwDQYJKoZIhvcNAQEBBQADggEPADCCAQoCggEBAMk7wzme
mngCHrD6cwfj6eKHUhufBXtLUxkILQ49Fi4FhMhGbWiUma+818J7q8vTtlI8+BCv
ub8Qbr2tL2VvQ+iRlXQKTm0tBvp8U0B9S4fuc7F5jEQydciyj+bCQamK+ZMxbURU
Tk1cXsY/5d0kwJjs7yMzwpuFBCsVSSWhliNKjCc0DmRbntEec4ot1tPS/Xio9z/Z
9jPYt+agwHk17JbJzAsxS2a/n1JcwyYHX71tcWkUbxPDz7HBqp2PoXv69J2oL/vk
3v4Pfx/TfTmqgjCuD1ASu8QTsPM1wS9QtlT69ouWHuEqG7J4PqiEvUrLQbcwScMD
20aGcqU8S2FlPwkCAwEAAaN7MHkwCQYDVR0TBAIwADAsBglghkgBhvhCAQ0EHxYd
T3BlblNTTCBHZW5lcmF0ZWQgQ2VydGlmaWNhdGUwHQYDVR0OBBYEFJFn+WlgZYe2
DgFQtS97xtc1kqh4MB8GA1UdIwQYMBaAFKuf0sXPs5HsbtrhpQWrHY3pD/OcMA0G
CSqGSIb3DQEBCwUAA4IBAQCGsDoiB+Rqf8N09gGFiERYpe/5c0I14cUiSm9FCFHy
DTDfvHDt97OSx5h8m/yeIS+jLwSmrwQ6jKmGsJMQkLglgRo0OvXqRJDDIbyEzvHk
ommFcACwjhHt0aLG0c7hwAw8QXGh+SOEHts3tpBfWYidwEGLUNJNz11dEMhP4Sbn
Wej4fXnDjOSaXOCQj1+GXnPAM9S+fXU+aobkAX6CYysJ+uIxOZyE1H//wrLtThRD
Za2iDRk/PBoI6gdsIKjgyi1oL/tvMOWHNWpMquaDbTp96fzoEXTS9+QKPUI/rxVO
Q2lXkEfbGwub9ZrbMlBLwm6u0ce26RDpVQHusJBJSZ1r
-----END CERTIFICATE-----
