Certificate:
    Data:
        Version: 3 (0x2)
        Serial Number: 1 (0x1)
        Signature Algorithm: sha256WithRSAEncryption
        Issuer: C=CN, ST=GS, L=LZ, O=LZUiversity, OU=ETS, CN=RootCA/emailAddress=RootCA@lzu.cn
        Validity
            Not Before: Oct 20 14:01:51 2019 GMT
            Not After : Oct 19 14:01:51 2020 GMT
        Subject: C=CN, ST=GS, O=LZUiversity, OU=ETS, CN=Client/emailAddress=RootCA@lzu.cn
        Subject Public Key Info:
            Public Key Algorithm: rsaEncryption
                RSA Public-Key: (2048 bit)
                Modulus:
                    00:de:4d:4a:a0:da:4e:b9:0b:a6:b4:fb:a6:95:c4:
                    bd:c4:e2:63:08:32:29:d6:e2:d7:42:68:ba:da:33:
                    65:89:63:86:5d:de:f8:80:6a:b7:35:c4:90:5e:7d:
                    b8:3c:b8:38:1f:b2:33:b4:c6:57:cc:b5:f0:d2:ba:
                    95:1d:fc:ca:1b:77:0a:c6:f5:3e:ad:f9:73:65:06:
                    ec:cf:bc:ad:f3:df:35:80:59:b7:e7:64:09:8c:b9:
                    4b:8d:cb:cb:99:c2:44:61:4a:6c:81:a8:d9:35:0f:
                    a5:17:30:03:75:f1:7f:f9:5c:e2:ae:cb:4c:66:5c:
                    9b:ae:e0:06:67:b6:0d:c1:94:0d:cf:4f:03:8f:78:
                    5c:20:99:b3:be:33:f0:5e:17:56:38:b6:58:43:1c:
                    9e:29:07:b9:ec:2a:98:3e:6c:e7:86:15:0a:38:74:
                    4b:ec:aa:7a:b5:34:fe:71:c1:ee:31:a3:ca:0e:db:
                    3a:3d:91:b0:87:c3:5d:63:5d:21:d3:90:2b:ec:f2:
                    d6:07:01:70:cf:8c:3e:b5:1d:2b:8b:2a:ad:86:47:
                    0f:11:ec:b1:90:a7:87:47:25:c4:3c:81:8c:ab:a9:
                    9d:98:e8:c5:97:62:db:5f:9a:5e:35:dc:ee:2c:08:
                    f7:fb:62:55:bb:c0:38:d5:dd:22:3c:f6:59:71:6d:
                    a4:b7
                Exponent: 65537 (0x10001)
        X509v3 extensions:
            X509v3 Basic Constraints: 
                CA:FALSE
            Netscape Comment: 
                OpenSSL Generated Certificate
            X509v3 Subject Key Identifier: 
                E4:5F:B0:85:E9:B2:E2:06:3B:14:CB:0E:B1:AE:64:7E:82:54:59:AB
            X509v3 Authority Key Identifier: 
                keyid:AB:9F:D2:C5:CF:B3:91:EC:6E:DA:E1:A5:05:AB:1D:8D:E9:0F:F3:9C

    Signature Algorithm: sha256WithRSAEncryption
         0e:f0:17:c6:0a:af:78:d4:36:5d:b7:47:de:ba:7b:14:96:2e:
         44:5b:b8:47:e2:3a:a1:28:c5:96:d3:e9:34:f6:1e:3c:f4:21:
         96:92:fc:ea:33:16:e1:49:d9:ba:a5:bc:84:df:65:43:da:f5:
         0d:30:68:de:86:4b:8f:ce:dc:ed:02:09:f8:11:1a:fd:0d:0d:
         82:06:7b:3e:5d:9d:1c:19:82:27:2c:0d:05:86:5e:ac:f5:63:
         55:92:eb:69:2f:2e:47:00:81:0f:ac:57:85:dc:96:c0:35:e2:
         32:b1:f6:c1:4a:1a:ce:03:29:1b:ca:96:24:78:98:22:b5:11:
         91:c4:a9:a3:5a:cb:3e:06:0f:38:96:4f:50:29:4d:3d:90:8c:
         72:e5:4c:4d:80:1f:74:a1:ff:b7:d9:ae:12:36:f4:92:c5:b9:
         6b:4c:f2:ff:36:51:55:58:5a:10:22:2b:08:7b:d7:0a:79:25:
         0a:f0:80:83:8d:96:38:28:c4:c3:66:0e:ca:69:8b:0c:04:54:
         b9:12:ce:81:f4:01:f4:6a:4c:7c:96:06:00:1d:b9:99:8d:a7:
         6e:5b:6e:d5:8b:83:3b:3b:31:ea:f7:4b:f1:30:b7:ce:a2:e7:
         f5:71:df:ae:77:7d:12:0c:1f:5d:a7:d4:78:e4:68:40:53:b7:
         cc:96:b9:b3
-----BEGIN CERTIFICATE-----
MIID3TCCAsWgAwIBAgIBATANBgkqhkiG9w0BAQsFADB6MQswCQYDVQQGEwJDTjEL
MAkGA1UECAwCR1MxCzAJBgNVBAcMAkxaMRQwEgYDVQQKDAtMWlVpdmVyc2l0eTEM
MAoGA1UECwwDRVRTMQ8wDQYDVQQDDAZSb290Q0ExHDAaBgkqhkiG9w0BCQEWDVJv
b3RDQUBsenUuY24wHhcNMTkxMDIwMTQwMTUxWhcNMjAxMDE5MTQwMTUxWjBtMQsw
CQYDVQQGEwJDTjELMAkGA1UECAwCR1MxFDASBgNVBAoMC0xaVWl2ZXJzaXR5MQww
CgYDVQQLDANFVFMxDzANBgNVBAMMBkNsaWVudDEcMBoGCSqGSIb3DQEJARYNUm9v
dENBQGx6dS5jbjCCASIwDQYJKoZIhvcNAQEBBQADggEPADCCAQoCggEBAN5NSqDa
TrkLprT7ppXEvcTiYwgyKdbi10JoutozZYljhl3e+IBqtzXEkF59uDy4OB+yM7TG
V8y18NK6lR38yht3Csb1Pq35c2UG7M+8rfPfNYBZt+dkCYy5S43Ly5nCRGFKbIGo
2TUPpRcwA3Xxf/lc4q7LTGZcm67gBme2DcGUDc9PA494XCCZs74z8F4XVji2WEMc
nikHuewqmD5s54YVCjh0S+yqerU0/nHB7jGjyg7bOj2RsIfDXWNdIdOQK+zy1gcB
cM+MPrUdK4sqrYZHDxHssZCnh0clxDyBjKupnZjoxZdi21+aXjXc7iwI9/tiVbvA
ONXdIjz2WXFtpLcCAwEAAaN7MHkwCQYDVR0TBAIwADAsBglghkgBhvhCAQ0EHxYd
T3BlblNTTCBHZW5lcmF0ZWQgQ2VydGlmaWNhdGUwHQYDVR0OBBYEFORfsIXpsuIG
OxTLDrGuZH6CVFmrMB8GA1UdIwQYMBaAFKuf0sXPs5HsbtrhpQWrHY3pD/OcMA0G
CSqGSIb3DQEBCwUAA4IBAQAO8BfGCq941DZdt0feunsUli5EW7hH4jqhKMWW0+k0
9h489CGWkvzqMxbhSdm6pbyE32VD2vUNMGjehkuPztztAgn4ERr9DQ2CBns+XZ0c
GYInLA0Fhl6s9WNVkutpLy5HAIEPrFeF3JbANeIysfbBShrOAykbypYkeJgitRGR
xKmjWss+Bg84lk9QKU09kIxy5UxNgB90of+32a4SNvSSxblrTPL/NlFVWFoQIisI
e9cKeSUK8ICDjZY4KMTDZg7KaYsMBFS5Es6B9AH0akx8lgYAHbmZjaduW27Vi4M7
OzHq90vxMLfOouf1cd+ud30SDB9dp9R45GhAU7fMlrmz
-----END CERTIFICATE-----
