Certificate:
    Data:
        Version: 3 (0x2)
        Serial Number: 1 (0x1)
    Signature Algorithm: sha256WithRSAEncryption
        Issuer: C=CN, ST=GS, L=LZ, O=LZUiversity, OU=ETS, CN=RootCA0/emailAddress=RootCA0@lzu.cn
        Validity
            Not Before: Oct  7 08:49:47 2018 GMT
            Not After : Oct  7 08:49:47 2019 GMT
        Subject: C=CN, ST=GS, L=LZ, O=LZUiversity, OU=ETS, CN=Server/emailAddress=RootCA0@lzu.cn
        Subject Public Key Info:
            Public Key Algorithm: rsaEncryption
                Public-Key: (2048 bit)
                Modulus:
                    00:c6:97:2d:b8:8d:82:74:b7:c5:32:bb:e0:d9:68:
                    07:96:f1:5b:8f:97:8d:4b:95:e6:d7:f4:94:ca:c5:
                    a1:5a:73:71:78:af:50:70:1a:84:e0:b1:66:40:81:
                    07:b1:ac:95:d9:24:3f:af:2a:b0:a3:32:92:62:2f:
                    99:04:1f:7f:53:f4:c9:99:57:85:8b:27:de:0a:70:
                    32:1a:00:90:d8:57:4c:e3:ff:e3:d9:6d:1d:25:cf:
                    ed:2c:5d:51:a6:09:34:fc:63:b8:ac:ff:16:8e:65:
                    3b:a6:96:63:ef:04:a0:1d:7e:b1:74:c4:73:be:e2:
                    9f:24:c2:a0:53:fe:0b:55:50:4f:f6:2e:93:1a:d6:
                    74:d7:61:85:f3:23:b9:a4:c7:41:26:82:d9:ee:b2:
                    a4:38:38:b8:1a:84:82:8a:7b:1d:38:56:67:ab:7a:
                    12:62:47:98:8a:71:5a:7f:fc:b2:56:2b:71:15:8f:
                    d8:f8:34:6e:43:94:9e:74:04:81:43:cb:b4:21:b8:
                    18:54:33:a1:2b:ae:f7:4b:64:4c:8d:57:a1:16:da:
                    50:39:ed:43:a1:13:5a:71:15:93:f4:92:e2:65:97:
                    ab:e6:07:9d:68:fa:94:a5:cd:3c:d6:81:92:a8:f3:
                    08:9a:23:8a:82:30:bf:03:a7:02:c5:44:b5:fe:b8:
                    a6:07
                Exponent: 65537 (0x10001)
        X509v3 extensions:
            X509v3 Basic Constraints: 
                CA:FALSE
            Netscape Comment: 
                OpenSSL Generated Certificate
            X509v3 Subject Key Identifier: 
                C7:07:AA:6D:55:4D:C6:47:F6:0F:56:A8:9C:CD:94:C8:A6:81:73:93
            X509v3 Authority Key Identifier: 
                keyid:D1:24:0F:1F:BE:9C:38:F5:9D:0C:73:B6:DD:CE:97:F2:B3:67:7A:AD

    Signature Algorithm: sha256WithRSAEncryption
         51:fb:5e:71:74:fd:39:ad:c6:e7:da:03:0e:e6:6c:ab:f0:2d:
         61:6d:a6:2a:2d:5a:0d:b4:a6:8e:0a:72:70:90:51:8f:61:fa:
         df:20:61:66:3e:70:25:d5:36:5f:d0:cc:44:cc:09:b0:8e:e4:
         a1:ee:dd:1b:79:58:39:37:78:e6:3a:2c:46:37:39:de:ea:2f:
         67:7a:48:b2:c9:e6:71:8e:38:44:7d:63:d2:97:db:87:57:6a:
         df:7b:82:90:b1:fd:0a:9d:57:8c:ea:bd:12:ae:d7:08:af:0c:
         86:43:79:7d:cc:85:ce:6b:0f:31:3a:77:dc:cd:23:ef:c6:3d:
         93:d7:66:cd:59:3c:70:98:17:60:56:f8:9d:4e:b1:e2:a3:72:
         dd:eb:6a:1f:b3:31:ab:b9:e2:5f:54:6e:5d:2d:f7:ec:75:03:
         ae:d0:d0:b0:00:9e:20:12:b9:15:be:05:26:79:9f:4d:cf:cb:
         d8:90:ba:db:34:c4:a6:52:9e:39:ae:2d:97:e8:35:6c:78:83:
         7f:49:0b:0d:fc:7a:c6:3a:af:30:d6:ec:23:6e:bd:c6:92:16:
         b1:14:36:49:6a:9e:61:88:ec:73:79:8f:90:bb:e3:28:f0:a9:
         fc:d0:8a:87:d8:3b:6b:0e:19:b0:d3:15:66:63:f7:c5:7c:31:
         c6:8d:b8:51
-----BEGIN CERTIFICATE-----
MIID7TCCAtWgAwIBAgIBATANBgkqhkiG9w0BAQsFADB8MQswCQYDVQQGEwJDTjEL
MAkGA1UECAwCR1MxCzAJBgNVBAcMAkxaMRQwEgYDVQQKDAtMWlVpdmVyc2l0eTEM
MAoGA1UECwwDRVRTMRAwDgYDVQQDDAdSb290Q0EwMR0wGwYJKoZIhvcNAQkBFg5S
b290Q0EwQGx6dS5jbjAeFw0xODEwMDcwODQ5NDdaFw0xOTEwMDcwODQ5NDdaMHsx
CzAJBgNVBAYTAkNOMQswCQYDVQQIDAJHUzELMAkGA1UEBwwCTFoxFDASBgNVBAoM
C0xaVWl2ZXJzaXR5MQwwCgYDVQQLDANFVFMxDzANBgNVBAMMBlNlcnZlcjEdMBsG
CSqGSIb3DQEJARYOUm9vdENBMEBsenUuY24wggEiMA0GCSqGSIb3DQEBAQUAA4IB
DwAwggEKAoIBAQDGly24jYJ0t8Uyu+DZaAeW8VuPl41LlebX9JTKxaFac3F4r1Bw
GoTgsWZAgQexrJXZJD+vKrCjMpJiL5kEH39T9MmZV4WLJ94KcDIaAJDYV0zj/+PZ
bR0lz+0sXVGmCTT8Y7is/xaOZTumlmPvBKAdfrF0xHO+4p8kwqBT/gtVUE/2LpMa
1nTXYYXzI7mkx0EmgtnusqQ4OLgahIKKex04VmerehJiR5iKcVp//LJWK3EVj9j4
NG5DlJ50BIFDy7QhuBhUM6ErrvdLZEyNV6EW2lA57UOhE1pxFZP0kuJll6vmB51o
+pSlzTzWgZKo8wiaI4qCML8DpwLFRLX+uKYHAgMBAAGjezB5MAkGA1UdEwQCMAAw
LAYJYIZIAYb4QgENBB8WHU9wZW5TU0wgR2VuZXJhdGVkIENlcnRpZmljYXRlMB0G
A1UdDgQWBBTHB6ptVU3GR/YPVqiczZTIpoFzkzAfBgNVHSMEGDAWgBTRJA8fvpw4
9Z0Mc7bdzpfys2d6rTANBgkqhkiG9w0BAQsFAAOCAQEAUftecXT9Oa3G59oDDuZs
q/AtYW2mKi1aDbSmjgpycJBRj2H63yBhZj5wJdU2X9DMRMwJsI7koe7dG3lYOTd4
5josRjc53uovZ3pIssnmcY44RH1j0pfbh1dq33uCkLH9Cp1XjOq9Eq7XCK8MhkN5
fcyFzmsPMTp33M0j78Y9k9dmzVk8cJgXYFb4nU6x4qNy3etqH7Mxq7niX1RuXS33
7HUDrtDQsACeIBK5Fb4FJnmfTc/L2JC62zTEplKeOa4tl+g1bHiDf0kLDfx6xjqv
MNbsI269xpIWsRQ2SWqeYYjsc3mPkLvjKPCp/NCKh9g7aw4ZsNMVZmP3xXwxxo24
UQ==
-----END CERTIFICATE-----
