Certificate:
    Data:
        Version: 3 (0x2)
        Serial Number: 2 (0x2)
    Signature Algorithm: sha256WithRSAEncryption
        Issuer: C=CN, ST=GS, L=LZ, O=LZUiversity, OU=ETS, CN=RootCA0/emailAddress=RootCA0@lzu.cn
        Validity
            Not Before: Oct  7 08:49:47 2018 GMT
            Not After : Oct  7 08:49:47 2019 GMT
        Subject: C=CN, ST=GS, L=LZ, O=LZUiversity, OU=ETS, CN=Client/emailAddress=RootCA0@lzu.cn
        Subject Public Key Info:
            Public Key Algorithm: rsaEncryption
                Public-Key: (2048 bit)
                Modulus:
                    00:e2:48:49:f8:c2:e4:b0:9d:84:51:1e:f2:59:95:
                    70:72:ca:0c:22:2b:3b:57:05:9c:28:7f:62:bc:f2:
                    62:7d:35:a3:5e:dc:fc:d0:63:a5:5b:f5:68:91:79:
                    d1:ee:78:ce:e7:cd:8d:5e:09:bc:69:e4:7e:fc:b6:
                    2f:a6:fb:04:a8:a9:f2:fd:40:5d:24:50:1d:f2:17:
                    2f:0c:e8:0a:82:89:80:2e:77:a6:1d:19:27:82:93:
                    21:9a:25:9b:79:6c:fe:14:87:d9:1d:65:37:4f:ed:
                    ad:bf:ba:20:3a:2b:e4:ef:e6:b9:a3:95:40:8e:77:
                    f2:25:8c:48:59:ea:3a:b0:e6:a2:ba:0c:09:64:9f:
                    95:0e:c2:c4:7a:2e:a3:dd:88:d1:a6:7d:e5:d8:d6:
                    cd:49:53:7b:77:7a:02:c7:2d:e8:08:9e:9f:8b:d9:
                    bd:af:90:63:0f:54:01:69:30:a9:c4:5e:e8:64:d2:
                    ca:ac:8e:bc:de:56:e1:61:d7:39:2f:a4:46:24:12:
                    4f:ef:c9:a1:a3:ee:99:b4:3a:22:8a:ba:6e:74:23:
                    fe:75:35:6c:57:63:bb:02:2e:8f:52:98:7d:8c:db:
                    da:67:d8:e3:ac:74:77:45:56:7f:51:75:8e:80:e2:
                    24:85:ac:3a:91:dd:5f:a1:59:3c:36:40:be:c3:a3:
                    b1:1f
                Exponent: 65537 (0x10001)
        X509v3 extensions:
            X509v3 Basic Constraints: 
                CA:FALSE
            Netscape Comment: 
                OpenSSL Generated Certificate
            X509v3 Subject Key Identifier: 
                DF:33:A9:2F:64:A2:62:CA:54:32:95:31:55:DB:CF:4E:10:C1:B0:D5
            X509v3 Authority Key Identifier: 
                keyid:D1:24:0F:1F:BE:9C:38:F5:9D:0C:73:B6:DD:CE:97:F2:B3:67:7A:AD

    Signature Algorithm: sha256WithRSAEncryption
         35:b2:c0:0d:21:30:90:58:11:45:f1:a2:6d:e1:d7:94:ce:17:
         de:76:1a:0b:f3:4a:7b:f0:fc:45:a5:24:35:22:ea:38:c4:67:
         ca:51:5c:ea:35:f6:bb:f6:02:b5:3e:1f:7f:45:3e:bb:12:5c:
         43:5d:5e:4f:89:7b:e5:6a:15:38:6c:7f:54:b6:e3:7c:31:27:
         29:59:f9:ae:f1:a8:2b:00:c6:ff:1d:b7:19:52:dd:44:4a:cf:
         c4:26:05:55:90:90:1f:c0:2d:b5:0f:00:1c:eb:64:69:62:5e:
         d6:22:1e:d8:02:d0:e2:f2:ed:da:1e:52:86:3d:5e:47:21:cd:
         13:76:c4:b4:af:38:a4:9d:04:8d:3f:ab:95:6c:da:2b:83:60:
         10:47:11:68:40:e6:75:0b:80:e8:55:51:c1:4b:6f:6c:c2:78:
         0f:cc:ed:81:65:53:af:ec:51:b1:7e:7f:dc:22:f0:f2:ad:8a:
         f2:11:7e:6d:ca:40:3a:56:fc:7c:8d:94:1e:ef:a9:e6:c3:39:
         4f:53:2d:c6:94:71:2d:79:61:ab:c6:9a:60:aa:3d:da:48:a1:
         1c:19:0a:64:d3:bc:c3:ce:d3:b9:0e:63:c1:b3:48:5f:68:c9:
         a2:d5:3d:d7:c9:23:8d:28:82:64:a2:b3:de:d4:66:07:11:6c:
         b0:c5:42:a4
-----BEGIN CERTIFICATE-----
MIID7TCCAtWgAwIBAgIBAjANBgkqhkiG9w0BAQsFADB8MQswCQYDVQQGEwJDTjEL
MAkGA1UECAwCR1MxCzAJBgNVBAcMAkxaMRQwEgYDVQQKDAtMWlVpdmVyc2l0eTEM
MAoGA1UECwwDRVRTMRAwDgYDVQQDDAdSb290Q0EwMR0wGwYJKoZIhvcNAQkBFg5S
b290Q0EwQGx6dS5jbjAeFw0xODEwMDcwODQ5NDdaFw0xOTEwMDcwODQ5NDdaMHsx
CzAJBgNVBAYTAkNOMQswCQYDVQQIDAJHUzELMAkGA1UEBwwCTFoxFDASBgNVBAoM
C0xaVWl2ZXJzaXR5MQwwCgYDVQQLDANFVFMxDzANBgNVBAMMBkNsaWVudDEdMBsG
CSqGSIb3DQEJARYOUm9vdENBMEBsenUuY24wggEiMA0GCSqGSIb3DQEBAQUAA4IB
DwAwggEKAoIBAQDiSEn4wuSwnYRRHvJZlXByygwiKztXBZwof2K88mJ9NaNe3PzQ
Y6Vb9WiRedHueM7nzY1eCbxp5H78ti+m+wSoqfL9QF0kUB3yFy8M6AqCiYAud6Yd
GSeCkyGaJZt5bP4Uh9kdZTdP7a2/uiA6K+Tv5rmjlUCOd/IljEhZ6jqw5qK6DAlk
n5UOwsR6LqPdiNGmfeXY1s1JU3t3egLHLegInp+L2b2vkGMPVAFpMKnEXuhk0sqs
jrzeVuFh1zkvpEYkEk/vyaGj7pm0OiKKum50I/51NWxXY7sCLo9SmH2M29pn2OOs
dHdFVn9RdY6A4iSFrDqR3V+hWTw2QL7Do7EfAgMBAAGjezB5MAkGA1UdEwQCMAAw
LAYJYIZIAYb4QgENBB8WHU9wZW5TU0wgR2VuZXJhdGVkIENlcnRpZmljYXRlMB0G
A1UdDgQWBBTfM6kvZKJiylQylTFV289OEMGw1TAfBgNVHSMEGDAWgBTRJA8fvpw4
9Z0Mc7bdzpfys2d6rTANBgkqhkiG9w0BAQsFAAOCAQEANbLADSEwkFgRRfGibeHX
lM4X3nYaC/NKe/D8RaUkNSLqOMRnylFc6jX2u/YCtT4ff0U+uxJcQ11eT4l75WoV
OGx/VLbjfDEnKVn5rvGoKwDG/x23GVLdRErPxCYFVZCQH8AttQ8AHOtkaWJe1iIe
2ALQ4vLt2h5Shj1eRyHNE3bEtK84pJ0EjT+rlWzaK4NgEEcRaEDmdQuA6FVRwUtv
bMJ4D8ztgWVTr+xRsX5/3CLw8q2K8hF+bcpAOlb8fI2UHu+p5sM5T1MtxpRxLXlh
q8aaYKo92kihHBkKZNO8w87TuQ5jwbNIX2jJotU918kjjSiCZKKz3tRmBxFssMVC
pA==
-----END CERTIFICATE-----
