Certificate:
    Data:
        Version: 3 (0x2)
        Serial Number: 3 (0x3)
    Signature Algorithm: sha256WithRSAEncryption
        Issuer: C=CN, ST=GS, L=LZ, O=LZUiversity, OU=ETS, CN=RootCA5/emailAddress=RootCA5@lzu.cn
        Validity
            Not Before: Sep 16 14:47:05 2018 GMT
            Not After : Sep 16 14:47:05 2019 GMT
        Subject: C=CN, ST=GS, L=LZ, O=LZUiversity, OU=ETS, CN=Client/emailAddress=RootCA5@lzu.cn
        Subject Public Key Info:
            Public Key Algorithm: rsaEncryption
                Public-Key: (2048 bit)
                Modulus:
                    00:c7:f5:cb:ea:81:fd:65:a1:50:ce:a7:94:08:68:
                    73:b1:dd:6f:17:5e:f4:9c:3e:c0:90:e5:94:a2:21:
                    bc:14:59:fe:54:2c:a3:9b:53:14:82:dc:61:d8:6c:
                    ec:d4:38:a4:24:14:98:d2:d5:83:46:6d:57:dc:14:
                    76:76:52:4b:1b:77:56:f9:80:0c:13:b8:d6:f4:60:
                    a5:41:bb:91:3f:b3:c5:44:04:d2:a0:6c:40:54:89:
                    13:64:4b:42:48:9c:a5:06:12:80:1b:49:a6:97:d9:
                    aa:ea:29:cb:71:6a:53:2f:89:62:56:f2:a8:72:ef:
                    3d:5b:c0:09:f7:40:40:1a:6a:7b:7c:ad:6b:35:89:
                    a1:b9:9b:58:03:15:4a:a9:05:5e:b3:5b:23:1f:f1:
                    ac:9b:3e:d9:ed:a7:7a:af:82:8d:0a:28:a5:0e:43:
                    a8:aa:44:94:1f:89:b0:82:ed:b7:6e:c4:81:95:bf:
                    68:af:48:c3:8a:ee:74:38:c7:f4:4a:2b:61:04:35:
                    0f:0d:e7:57:95:33:ed:63:c1:e3:65:4c:73:06:99:
                    33:aa:66:07:ee:05:88:13:44:9a:5e:a4:02:1c:6a:
                    35:b4:f6:9b:9f:f3:79:d8:35:67:82:b8:c6:44:b8:
                    28:30:f4:7c:ff:e7:8e:01:18:31:40:ab:85:63:7b:
                    48:bd
                Exponent: 65537 (0x10001)
        X509v3 extensions:
            X509v3 Basic Constraints: 
                CA:FALSE
            Netscape Comment: 
                OpenSSL Generated Certificate
            X509v3 Subject Key Identifier: 
                16:D3:E8:79:1E:6C:38:2C:30:2F:1C:30:42:4A:86:64:A8:CE:3D:5A
            X509v3 Authority Key Identifier: 
                keyid:C0:2F:F8:FC:CF:85:78:D9:E0:D8:F9:CE:C1:D9:4B:2E:54:38:5D:6C

    Signature Algorithm: sha256WithRSAEncryption
         7a:e0:0d:33:ea:41:d4:27:69:de:9b:63:05:8d:9e:97:30:29:
         ef:5d:87:0b:8d:31:21:3f:6d:c8:bd:55:90:55:a9:8d:19:ee:
         e7:dd:c9:4f:3f:2f:f9:0e:c2:95:72:d2:1e:1b:69:d6:5d:d0:
         93:2c:93:9c:79:a1:86:c7:4c:b0:59:0d:c7:24:1d:25:a7:66:
         bd:db:e7:03:f9:dd:e9:05:5f:22:5c:4b:fa:25:d9:7a:df:12:
         f2:fa:1a:71:00:d4:0a:40:18:fa:02:9f:76:66:1c:a9:21:63:
         ee:20:d4:57:fa:f7:a7:09:96:db:f9:48:9b:8a:fc:5f:32:17:
         fa:ef:cd:c8:ab:9c:4f:5e:39:fd:1a:e9:12:a0:8f:92:3d:30:
         48:69:b9:11:bc:32:1b:35:43:f5:f4:55:7a:40:d8:14:cb:76:
         82:a4:f1:e5:c0:de:6b:67:b9:8e:41:b5:73:4e:e2:52:ca:a7:
         00:85:9b:10:15:1d:3f:dc:54:86:31:0f:33:1d:b0:97:e4:24:
         ae:07:5e:ac:df:4f:87:27:4d:ad:40:4f:72:58:ae:e2:39:61:
         1a:59:37:5b:88:97:d2:8e:e8:16:45:54:ef:55:fe:57:25:2b:
         3a:18:22:a9:27:67:84:f2:4e:69:4e:9a:b7:a8:1a:9a:81:da:
         67:d5:53:ed
-----BEGIN CERTIFICATE-----
MIID7TCCAtWgAwIBAgIBAzANBgkqhkiG9w0BAQsFADB8MQswCQYDVQQGEwJDTjEL
MAkGA1UECAwCR1MxCzAJBgNVBAcMAkxaMRQwEgYDVQQKDAtMWlVpdmVyc2l0eTEM
MAoGA1UECwwDRVRTMRAwDgYDVQQDDAdSb290Q0E1MR0wGwYJKoZIhvcNAQkBFg5S
b290Q0E1QGx6dS5jbjAeFw0xODA5MTYxNDQ3MDVaFw0xOTA5MTYxNDQ3MDVaMHsx
CzAJBgNVBAYTAkNOMQswCQYDVQQIDAJHUzELMAkGA1UEBwwCTFoxFDASBgNVBAoM
C0xaVWl2ZXJzaXR5MQwwCgYDVQQLDANFVFMxDzANBgNVBAMMBkNsaWVudDEdMBsG
CSqGSIb3DQEJARYOUm9vdENBNUBsenUuY24wggEiMA0GCSqGSIb3DQEBAQUAA4IB
DwAwggEKAoIBAQDH9cvqgf1loVDOp5QIaHOx3W8XXvScPsCQ5ZSiIbwUWf5ULKOb
UxSC3GHYbOzUOKQkFJjS1YNGbVfcFHZ2Uksbd1b5gAwTuNb0YKVBu5E/s8VEBNKg
bEBUiRNkS0JInKUGEoAbSaaX2arqKctxalMviWJW8qhy7z1bwAn3QEAaant8rWs1
iaG5m1gDFUqpBV6zWyMf8aybPtntp3qvgo0KKKUOQ6iqRJQfibCC7bduxIGVv2iv
SMOK7nQ4x/RKK2EENQ8N51eVM+1jweNlTHMGmTOqZgfuBYgTRJpepAIcajW09puf
83nYNWeCuMZEuCgw9Hz/544BGDFAq4Vje0i9AgMBAAGjezB5MAkGA1UdEwQCMAAw
LAYJYIZIAYb4QgENBB8WHU9wZW5TU0wgR2VuZXJhdGVkIENlcnRpZmljYXRlMB0G
A1UdDgQWBBQW0+h5Hmw4LDAvHDBCSoZkqM49WjAfBgNVHSMEGDAWgBTAL/j8z4V4
2eDY+c7B2UsuVDhdbDANBgkqhkiG9w0BAQsFAAOCAQEAeuANM+pB1Cdp3ptjBY2e
lzAp712HC40xIT9tyL1VkFWpjRnu593JTz8v+Q7ClXLSHhtp1l3QkyyTnHmhhsdM
sFkNxyQdJadmvdvnA/nd6QVfIlxL+iXZet8S8voacQDUCkAY+gKfdmYcqSFj7iDU
V/r3pwmW2/lIm4r8XzIX+u/NyKucT145/RrpEqCPkj0wSGm5EbwyGzVD9fRVekDY
FMt2gqTx5cDea2e5jkG1c07iUsqnAIWbEBUdP9xUhjEPMx2wl+QkrgderN9PhydN
rUBPcliu4jlhGlk3W4iX0o7oFkVU71X+VyUrOhgiqSdnhPJOaU6at6gamoHaZ9VT
7Q==
-----END CERTIFICATE-----
