Certificate:
    Data:
        Version: 3 (0x2)
        Serial Number: 1 (0x1)
    Signature Algorithm: sha256WithRSAEncryption
        Issuer: C=CN, ST=GS, L=LZ, O=LZUiversity, OU=ETS, CN=RootCA4/emailAddress=RootCA4@lzu.cn
        Validity
            Not Before: Sep 16 14:47:05 2018 GMT
            Not After : Sep 16 14:47:05 2019 GMT
        Subject: C=CN, ST=GS, L=LZ, O=LZUiversity, OU=ETS, CN=RootCA5/emailAddress=RootCA5@lzu.cn
        Subject Public Key Info:
            Public Key Algorithm: rsaEncryption
                Public-Key: (2048 bit)
                Modulus:
                    00:a8:dc:c4:20:8e:d1:4c:e7:11:f7:31:7c:d2:5f:
                    25:b4:82:7f:90:eb:9d:19:03:25:19:35:92:45:c7:
                    d7:bf:46:b4:f1:06:ab:80:3f:af:e9:b4:78:60:1f:
                    a7:42:93:f0:0f:2b:86:58:c8:17:db:02:d4:34:3e:
                    9c:39:cf:d5:22:b7:5a:bd:9b:03:94:6d:41:7d:8a:
                    1f:fa:2e:c6:02:f7:8c:be:9d:b7:8d:08:a3:71:9c:
                    3d:8c:9b:fb:07:40:14:49:5d:cd:3f:97:d1:ca:cb:
                    a9:2a:d1:c9:fb:cd:7f:a7:49:f8:fc:c3:f3:f0:75:
                    17:67:08:1a:49:a1:e5:ee:e3:66:80:bb:e5:1e:d8:
                    75:8f:d5:de:d9:a0:76:73:b2:e2:3c:9f:66:1a:00:
                    cb:5b:3e:74:f2:ba:66:69:83:7d:9f:5d:cf:8a:01:
                    11:22:1d:b9:08:6c:3e:ed:80:3b:77:1d:9c:2d:33:
                    08:3b:5e:59:14:0b:93:b0:f2:26:e8:3f:37:be:75:
                    87:66:6a:1d:4f:a4:a7:b5:2c:06:20:03:0b:eb:7c:
                    36:96:00:59:d8:06:9e:8d:c2:ee:1c:e0:8b:8c:15:
                    e5:4f:83:bf:d8:18:bb:58:42:d0:b5:09:b2:a5:16:
                    5f:32:bf:2d:ff:5c:a8:05:0b:74:92:20:3d:14:42:
                    f9:d5
                Exponent: 65537 (0x10001)
        X509v3 extensions:
            X509v3 Subject Key Identifier: 
                C0:2F:F8:FC:CF:85:78:D9:E0:D8:F9:CE:C1:D9:4B:2E:54:38:5D:6C
            X509v3 Authority Key Identifier: 
                keyid:60:5C:CE:DC:E5:4C:84:BB:82:C2:05:67:60:37:00:C1:7D:2B:C8:D9

            X509v3 Basic Constraints: 
                CA:TRUE
            X509v3 Key Usage: 
                Certificate Sign
    Signature Algorithm: sha256WithRSAEncryption
         0b:34:df:c9:89:fd:de:f0:12:5b:28:ba:77:5b:40:a3:53:69:
         5a:35:ec:ca:2f:58:49:06:de:96:48:81:80:79:1c:9e:6b:46:
         c5:7b:07:6b:5b:bc:e5:be:9e:f6:6e:43:88:d5:7f:b5:0c:8c:
         7d:d9:6e:7f:45:3d:bc:b8:33:df:96:ca:37:ba:19:7f:b8:fd:
         f3:57:e6:52:c9:9e:34:4b:40:ce:30:a1:a0:67:a4:ec:ec:00:
         72:57:ef:3b:61:e4:40:9f:cd:6d:59:24:0e:16:e3:bd:f9:ae:
         c2:00:d7:e9:72:11:0d:8d:a4:a7:dd:33:90:f9:44:13:f7:56:
         a1:97:60:97:f7:4a:0f:03:56:b5:9a:50:6b:79:07:3b:d4:b3:
         00:91:d4:34:b2:a8:44:7e:ce:d8:c1:11:b5:76:4b:e8:7a:bd:
         65:5b:0b:37:47:b8:80:78:7f:8b:78:c5:7b:6f:8d:2e:03:8e:
         b1:5b:ce:01:74:a5:ac:f4:5f:ee:92:34:89:eb:b8:e4:97:85:
         37:b9:a4:bb:bd:e7:90:24:93:87:ed:8c:c4:7a:4a:7c:39:a8:
         81:f0:e2:7c:e3:1e:b6:af:d7:88:ca:e7:2b:88:e1:d5:c7:42:
         6c:a9:4a:de:36:47:7f:1c:ae:6c:3b:d7:5a:ea:b3:71:d4:00:
         05:94:ae:f0
-----BEGIN CERTIFICATE-----
MIID0DCCArigAwIBAgIBATANBgkqhkiG9w0BAQsFADB8MQswCQYDVQQGEwJDTjEL
MAkGA1UECAwCR1MxCzAJBgNVBAcMAkxaMRQwEgYDVQQKDAtMWlVpdmVyc2l0eTEM
MAoGA1UECwwDRVRTMRAwDgYDVQQDDAdSb290Q0E0MR0wGwYJKoZIhvcNAQkBFg5S
b290Q0E0QGx6dS5jbjAeFw0xODA5MTYxNDQ3MDVaFw0xOTA5MTYxNDQ3MDVaMHwx
CzAJBgNVBAYTAkNOMQswCQYDVQQIDAJHUzELMAkGA1UEBwwCTFoxFDASBgNVBAoM
C0xaVWl2ZXJzaXR5MQwwCgYDVQQLDANFVFMxEDAOBgNVBAMMB1Jvb3RDQTUxHTAb
BgkqhkiG9w0BCQEWDlJvb3RDQTVAbHp1LmNuMIIBIjANBgkqhkiG9w0BAQEFAAOC
AQ8AMIIBCgKCAQEAqNzEII7RTOcR9zF80l8ltIJ/kOudGQMlGTWSRcfXv0a08Qar
gD+v6bR4YB+nQpPwDyuGWMgX2wLUND6cOc/VIrdavZsDlG1BfYof+i7GAveMvp23
jQijcZw9jJv7B0AUSV3NP5fRysupKtHJ+81/p0n4/MPz8HUXZwgaSaHl7uNmgLvl
Hth1j9Xe2aB2c7LiPJ9mGgDLWz508rpmaYN9n13PigERIh25CGw+7YA7dx2cLTMI
O15ZFAuTsPIm6D83vnWHZmodT6SntSwGIAML63w2lgBZ2AaejcLuHOCLjBXlT4O/
2Bi7WELQtQmypRZfMr8t/1yoBQt0kiA9FEL51QIDAQABo10wWzAdBgNVHQ4EFgQU
wC/4/M+FeNng2PnOwdlLLlQ4XWwwHwYDVR0jBBgwFoAUYFzO3OVMhLuCwgVnYDcA
wX0ryNkwDAYDVR0TBAUwAwEB/zALBgNVHQ8EBAMCAgQwDQYJKoZIhvcNAQELBQAD
ggEBAAs038mJ/d7wElsoundbQKNTaVo17MovWEkG3pZIgYB5HJ5rRsV7B2tbvOW+
nvZuQ4jVf7UMjH3Zbn9FPby4M9+Wyje6GX+4/fNX5lLJnjRLQM4woaBnpOzsAHJX
7zth5ECfzW1ZJA4W4735rsIA1+lyEQ2NpKfdM5D5RBP3VqGXYJf3Sg8DVrWaUGt5
BzvUswCR1DSyqER+ztjBEbV2S+h6vWVbCzdHuIB4f4t4xXtvjS4DjrFbzgF0paz0
X+6SNInruOSXhTe5pLu955Akk4ftjMR6Snw5qIHw4nzjHrav14jK5yuI4dXHQmyp
St42R38crmw711rqs3HUAAWUrvA=
-----END CERTIFICATE-----
-----BEGIN CERTIFICATE-----
MIID2DCCAsCgAwIBAgIJAJYVDBfYYbyVMA0GCSqGSIb3DQEBCwUAMHwxCzAJBgNV
BAYTAkNOMQswCQYDVQQIDAJHUzELMAkGA1UEBwwCTFoxFDASBgNVBAoMC0xaVWl2
ZXJzaXR5MQwwCgYDVQQLDANFVFMxEDAOBgNVBAMMB1Jvb3RDQTAxHTAbBgkqhkiG
9w0BCQEWDlJvb3RDQTBAbHp1LmNuMB4XDTE4MDkxNjE0NDcwNFoXDTI4MDkxMzE0
NDcwNFowfDELMAkGA1UEBhMCQ04xCzAJBgNVBAgMAkdTMQswCQYDVQQHDAJMWjEU
MBIGA1UECgwLTFpVaXZlcnNpdHkxDDAKBgNVBAsMA0VUUzEQMA4GA1UEAwwHUm9v
dENBMDEdMBsGCSqGSIb3DQEJARYOUm9vdENBMEBsenUuY24wggEiMA0GCSqGSIb3
DQEBAQUAA4IBDwAwggEKAoIBAQDz3Vl2mrzoKaFty9jtZaO9n2y6vXOSgDk3rd3i
ymiDZfSl/dMEMfFWffoYzX/Q2PTBwYpGemX6uN1/LqNV3/W56qfX4OjSlw5rbLXD
kzLPihWqNxzwleiKhCzAVrnE3avUA+Hbm4q+ZQOmVEngnZBV2Bowv/csYsaGT2zQ
tG88S6sGNPPOSDMw+BVzqHAYULCRpdIGWILq3cK48nbhc38NwM1k/DzMfcKeaC0S
y1bxi216uRrdqEPweTerRoOFgLry6e2W55wZc5tUeJqe6sUJtauVj2+jAVQoLtMv
9noo0F5AMhimLO71kEZyfHblp4PcdLZOwnrexdGUu/2+m57zAgMBAAGjXTBbMB0G
A1UdDgQWBBTFtfcA2ke7PHpO4PsvJ+kpxjfMYjAfBgNVHSMEGDAWgBTFtfcA2ke7
PHpO4PsvJ+kpxjfMYjAMBgNVHRMEBTADAQH/MAsGA1UdDwQEAwICBDANBgkqhkiG
9w0BAQsFAAOCAQEAhptxYiZbV+PLsxS2KDyKUeVpaEGoV5YyEqsPm3IZaFQdetcF
L6pTtq/QZF3JfOogrHyGzo+5bWaPbgCf0k/duV2ioNHTN/HT4wkltBgmkodwY/V3
Gx6A+9SnXhf4pGuQFp85TI1lk84d/HzL5OqXSY4xhZGZIrO+mHMEzZ9ugB0OSYi/
xLB0rkZFJk3tuYSSnXxHNU4nMrcI878fXiLc0QBA7YSLez6kYMatLo6RiamQLqnl
JwBCKVbXahVh4ASE7i+n+uukwYJdWC74WlCVXC7YLnq4W+41JJqgLlT8fsck26XE
LT0JVywXkcUcYmnT3kl+cZHvNxEl8ahhl6AIdQ==
-----END CERTIFICATE-----
Certificate:
    Data:
        Version: 3 (0x2)
        Serial Number: 1 (0x1)
    Signature Algorithm: sha256WithRSAEncryption
        Issuer: C=CN, ST=GS, L=LZ, O=LZUiversity, OU=ETS, CN=RootCA0/emailAddress=RootCA0@lzu.cn
        Validity
            Not Before: Sep 16 14:47:04 2018 GMT
            Not After : Sep 16 14:47:04 2019 GMT
        Subject: C=CN, ST=GS, L=LZ, O=LZUiversity, OU=ETS, CN=RootCA1/emailAddress=RootCA1@lzu.cn
        Subject Public Key Info:
            Public Key Algorithm: rsaEncryption
                Public-Key: (2048 bit)
                Modulus:
                    00:9d:90:3f:7a:b8:6b:33:75:1e:1a:4b:7f:5b:40:
                    9c:19:3b:3d:74:5a:e3:fd:a3:81:53:c4:99:9d:d0:
                    85:cf:a0:d2:2c:97:ff:31:50:a9:10:86:5a:09:e2:
                    e8:6f:29:12:d3:c2:7a:3b:dd:48:a4:12:fd:48:fb:
                    92:a2:81:81:a4:60:b3:ca:01:16:b1:85:ca:ba:0c:
                    63:0b:c9:80:06:20:90:18:e7:f2:04:a0:31:26:ba:
                    6d:a9:51:24:66:31:60:b6:91:fa:13:6c:f6:c9:31:
                    2a:f8:c4:a2:72:41:24:3d:ba:1d:c4:13:7f:9c:16:
                    dd:93:25:77:5c:3f:08:40:02:77:0b:29:e4:5a:3a:
                    37:e2:04:45:35:4b:47:7e:b7:24:a4:47:ed:11:51:
                    8c:4e:2d:43:b2:e8:d1:7a:9c:e9:0b:82:68:9e:a8:
                    fa:e2:f9:e0:48:16:b5:4d:0a:cd:8c:93:8d:f1:fd:
                    dc:ec:01:d7:e5:8f:4e:fb:82:5a:bc:ab:86:0d:30:
                    d3:32:72:e0:94:9f:c5:f3:08:0f:b5:84:58:72:5d:
                    a1:81:5f:d5:eb:3b:c4:ec:08:3a:6a:6c:7b:b8:41:
                    58:95:76:5b:52:5e:86:39:50:dc:12:50:1a:97:1f:
                    ae:7f:25:92:51:5c:ee:23:2b:c8:83:23:8b:7d:1c:
                    91:87
                Exponent: 65537 (0x10001)
        X509v3 extensions:
            X509v3 Subject Key Identifier: 
                5C:D3:FF:FE:96:E5:C3:9C:F6:C1:61:DE:B9:E9:C2:6E:09:E6:D1:78
            X509v3 Authority Key Identifier: 
                keyid:C5:B5:F7:00:DA:47:BB:3C:7A:4E:E0:FB:2F:27:E9:29:C6:37:CC:62

            X509v3 Basic Constraints: 
                CA:TRUE
            X509v3 Key Usage: 
                Certificate Sign
    Signature Algorithm: sha256WithRSAEncryption
         01:88:89:6e:4c:21:ed:93:35:a9:c6:52:08:cf:3f:91:c7:a1:
         37:16:56:5e:e6:b9:f2:db:2e:f3:1d:c2:d7:2b:fc:0c:da:ff:
         4d:03:d9:05:42:e2:5d:54:64:8a:35:d1:fd:96:86:f6:a4:f5:
         ef:5b:46:7b:cf:33:c4:ca:69:f4:1e:d0:21:4a:9f:6d:04:fb:
         c3:73:0b:78:7a:8a:14:91:b3:4b:5d:0e:cf:4d:70:b1:5c:ed:
         b0:f1:f0:c4:e8:27:27:1a:cd:10:c7:be:56:6c:b0:bb:eb:f0:
         4a:c2:a9:c0:29:06:34:8d:cf:86:3c:23:e9:38:f4:dd:fd:5f:
         5e:75:04:b2:17:7c:b7:2d:a2:dc:9c:c1:64:85:41:4a:46:bc:
         e8:4c:76:14:c9:9e:90:02:71:d2:58:8d:b4:fb:67:36:01:fa:
         6e:89:59:d1:c2:14:3a:35:fc:e3:a9:8c:3e:be:91:4b:05:ff:
         d9:ae:00:f3:4d:8f:09:ff:57:d2:22:df:3b:06:9d:51:65:13:
         5f:0b:0b:57:e2:89:9b:b8:6f:ef:27:35:10:29:58:93:7b:bb:
         4c:ba:39:bd:06:01:fe:d3:31:b7:fd:61:b1:dc:3a:07:4b:1a:
         b6:df:00:08:7c:60:ea:29:ea:3a:7d:b3:93:be:ab:7f:7e:69:
         34:ef:79:37
-----BEGIN CERTIFICATE-----
MIID0DCCArigAwIBAgIBATANBgkqhkiG9w0BAQsFADB8MQswCQYDVQQGEwJDTjEL
MAkGA1UECAwCR1MxCzAJBgNVBAcMAkxaMRQwEgYDVQQKDAtMWlVpdmVyc2l0eTEM
MAoGA1UECwwDRVRTMRAwDgYDVQQDDAdSb290Q0EwMR0wGwYJKoZIhvcNAQkBFg5S
b290Q0EwQGx6dS5jbjAeFw0xODA5MTYxNDQ3MDRaFw0xOTA5MTYxNDQ3MDRaMHwx
CzAJBgNVBAYTAkNOMQswCQYDVQQIDAJHUzELMAkGA1UEBwwCTFoxFDASBgNVBAoM
C0xaVWl2ZXJzaXR5MQwwCgYDVQQLDANFVFMxEDAOBgNVBAMMB1Jvb3RDQTExHTAb
BgkqhkiG9w0BCQEWDlJvb3RDQTFAbHp1LmNuMIIBIjANBgkqhkiG9w0BAQEFAAOC
AQ8AMIIBCgKCAQEAnZA/erhrM3UeGkt/W0CcGTs9dFrj/aOBU8SZndCFz6DSLJf/
MVCpEIZaCeLobykS08J6O91IpBL9SPuSooGBpGCzygEWsYXKugxjC8mABiCQGOfy
BKAxJrptqVEkZjFgtpH6E2z2yTEq+MSickEkPbodxBN/nBbdkyV3XD8IQAJ3Cynk
Wjo34gRFNUtHfrckpEftEVGMTi1DsujRepzpC4Jonqj64vngSBa1TQrNjJON8f3c
7AHX5Y9O+4JavKuGDTDTMnLglJ/F8wgPtYRYcl2hgV/V6zvE7Ag6amx7uEFYlXZb
Ul6GOVDcElAalx+ufyWSUVzuIyvIgyOLfRyRhwIDAQABo10wWzAdBgNVHQ4EFgQU
XNP//pblw5z2wWHeuenCbgnm0XgwHwYDVR0jBBgwFoAUxbX3ANpHuzx6TuD7Lyfp
KcY3zGIwDAYDVR0TBAUwAwEB/zALBgNVHQ8EBAMCAgQwDQYJKoZIhvcNAQELBQAD
ggEBAAGIiW5MIe2TNanGUgjPP5HHoTcWVl7mufLbLvMdwtcr/Aza/00D2QVC4l1U
ZIo10f2Whvak9e9bRnvPM8TKafQe0CFKn20E+8NzC3h6ihSRs0tdDs9NcLFc7bDx
8MToJycazRDHvlZssLvr8ErCqcApBjSNz4Y8I+k49N39X151BLIXfLctotycwWSF
QUpGvOhMdhTJnpACcdJYjbT7ZzYB+m6JWdHCFDo1/OOpjD6+kUsF/9muAPNNjwn/
V9Ii3zsGnVFlE18LC1fiiZu4b+8nNRApWJN7u0y6Ob0GAf7TMbf9YbHcOgdLGrbf
AAh8YOop6jp9s5O+q39+aTTveTc=
-----END CERTIFICATE-----
Certificate:
    Data:
        Version: 3 (0x2)
        Serial Number: 1 (0x1)
    Signature Algorithm: sha256WithRSAEncryption
        Issuer: C=CN, ST=GS, L=LZ, O=LZUiversity, OU=ETS, CN=RootCA1/emailAddress=RootCA1@lzu.cn
        Validity
            Not Before: Sep 16 14:47:04 2018 GMT
            Not After : Sep 16 14:47:04 2019 GMT
        Subject: C=CN, ST=GS, L=LZ, O=LZUiversity, OU=ETS, CN=RootCA2/emailAddress=RootCA2@lzu.cn
        Subject Public Key Info:
            Public Key Algorithm: rsaEncryption
                Public-Key: (2048 bit)
                Modulus:
                    00:be:3c:c6:c2:10:9f:8f:77:0b:a2:7f:a2:77:12:
                    34:09:32:4a:a8:ea:47:37:92:83:a5:e3:95:55:f0:
                    d6:b7:8e:6e:2b:68:5b:ff:97:27:9f:b8:ef:03:a2:
                    30:46:fd:2b:e9:32:0d:30:53:98:aa:75:ff:28:db:
                    49:c6:48:26:b2:30:e6:45:f1:e9:0d:ec:18:51:9e:
                    33:8a:7f:f7:53:6f:70:40:81:a9:d8:c6:03:7b:58:
                    90:1b:1a:08:cb:80:1c:89:6c:41:f6:7a:02:1d:c5:
                    ed:de:e6:26:4c:1a:b3:12:42:9a:cf:cf:dd:b9:58:
                    a7:54:3d:99:e8:d7:0f:e1:b1:8d:69:31:a4:7f:66:
                    b0:a2:24:d7:42:ac:09:fb:a6:09:83:5e:5d:5c:4b:
                    e3:39:a0:e3:78:2a:ff:83:53:78:24:4e:5b:d7:9d:
                    03:86:e2:4b:2e:8e:85:42:b0:c5:64:f9:59:67:0c:
                    7e:fd:90:87:b0:ab:dd:2f:4b:4b:37:34:33:2a:e1:
                    f6:b3:67:4f:f7:7d:b9:d8:8d:e2:17:c6:6b:d1:cb:
                    f6:4c:fe:6a:00:3f:ab:8f:d9:9d:76:15:7e:84:b9:
                    19:83:55:11:86:a3:7a:c9:e0:d9:a0:97:4b:50:f9:
                    a1:df:0e:1d:b1:4a:9b:44:79:cb:fc:00:46:a5:2e:
                    4c:cd
                Exponent: 65537 (0x10001)
        X509v3 extensions:
            X509v3 Subject Key Identifier: 
                0E:FA:EE:36:CC:57:EE:1F:A1:6E:7A:9D:EA:07:85:21:FA:61:81:61
            X509v3 Authority Key Identifier: 
                keyid:5C:D3:FF:FE:96:E5:C3:9C:F6:C1:61:DE:B9:E9:C2:6E:09:E6:D1:78

            X509v3 Basic Constraints: 
                CA:TRUE
            X509v3 Key Usage: 
                Certificate Sign
    Signature Algorithm: sha256WithRSAEncryption
         27:f4:18:9b:c0:f2:79:08:16:a9:d3:34:e9:8e:6c:e3:9b:b6:
         6d:39:08:a9:3f:35:cb:ec:83:bf:43:73:a3:11:b6:39:0d:de:
         22:5a:15:66:54:9e:56:40:2c:5e:63:b0:94:fe:8c:0c:8b:b5:
         cc:6e:41:69:61:3e:de:f3:eb:a7:d2:7a:e7:09:4b:d1:b4:30:
         41:0c:db:79:84:3a:5a:93:8d:45:e9:96:be:35:f4:51:de:a2:
         95:f8:63:ea:61:41:59:3a:dd:c0:8c:88:09:95:61:22:65:f9:
         08:0c:b3:4b:d0:ec:86:b8:2e:18:df:ec:b2:07:33:d6:3f:b9:
         1d:6b:e2:a7:e9:ae:12:94:00:5e:fc:e8:d9:b5:69:21:79:7c:
         84:48:19:6a:ad:bf:1b:e7:85:37:29:e0:bd:08:d2:2f:3e:26:
         4b:0a:19:36:ab:14:e4:da:e1:fb:96:3b:02:a8:cb:39:db:18:
         90:9c:4a:ac:6e:90:57:7f:92:7e:e1:b4:33:7b:42:53:67:e0:
         19:42:a4:ba:fc:35:95:2e:80:61:3b:bc:79:bb:55:30:d8:9b:
         5c:3d:aa:a0:1b:bd:3b:f5:0f:5e:e3:35:9e:66:f2:5c:67:f0:
         6c:65:fc:b3:73:4e:ad:aa:b1:08:74:79:6a:f6:f6:3c:d0:16:
         67:da:15:01
-----BEGIN CERTIFICATE-----
MIID0DCCArigAwIBAgIBATANBgkqhkiG9w0BAQsFADB8MQswCQYDVQQGEwJDTjEL
MAkGA1UECAwCR1MxCzAJBgNVBAcMAkxaMRQwEgYDVQQKDAtMWlVpdmVyc2l0eTEM
MAoGA1UECwwDRVRTMRAwDgYDVQQDDAdSb290Q0ExMR0wGwYJKoZIhvcNAQkBFg5S
b290Q0ExQGx6dS5jbjAeFw0xODA5MTYxNDQ3MDRaFw0xOTA5MTYxNDQ3MDRaMHwx
CzAJBgNVBAYTAkNOMQswCQYDVQQIDAJHUzELMAkGA1UEBwwCTFoxFDASBgNVBAoM
C0xaVWl2ZXJzaXR5MQwwCgYDVQQLDANFVFMxEDAOBgNVBAMMB1Jvb3RDQTIxHTAb
BgkqhkiG9w0BCQEWDlJvb3RDQTJAbHp1LmNuMIIBIjANBgkqhkiG9w0BAQEFAAOC
AQ8AMIIBCgKCAQEAvjzGwhCfj3cLon+idxI0CTJKqOpHN5KDpeOVVfDWt45uK2hb
/5cnn7jvA6IwRv0r6TINMFOYqnX/KNtJxkgmsjDmRfHpDewYUZ4zin/3U29wQIGp
2MYDe1iQGxoIy4AciWxB9noCHcXt3uYmTBqzEkKaz8/duVinVD2Z6NcP4bGNaTGk
f2awoiTXQqwJ+6YJg15dXEvjOaDjeCr/g1N4JE5b150DhuJLLo6FQrDFZPlZZwx+
/ZCHsKvdL0tLNzQzKuH2s2dP93252I3iF8Zr0cv2TP5qAD+rj9mddhV+hLkZg1UR
hqN6yeDZoJdLUPmh3w4dsUqbRHnL/ABGpS5MzQIDAQABo10wWzAdBgNVHQ4EFgQU
DvruNsxX7h+hbnqd6geFIfphgWEwHwYDVR0jBBgwFoAUXNP//pblw5z2wWHeuenC
bgnm0XgwDAYDVR0TBAUwAwEB/zALBgNVHQ8EBAMCAgQwDQYJKoZIhvcNAQELBQAD
ggEBACf0GJvA8nkIFqnTNOmObOObtm05CKk/Ncvsg79Dc6MRtjkN3iJaFWZUnlZA
LF5jsJT+jAyLtcxuQWlhPt7z66fSeucJS9G0MEEM23mEOlqTjUXplr419FHeopX4
Y+phQVk63cCMiAmVYSJl+QgMs0vQ7Ia4Lhjf7LIHM9Y/uR1r4qfprhKUAF786Nm1
aSF5fIRIGWqtvxvnhTcp4L0I0i8+JksKGTarFOTa4fuWOwKoyznbGJCcSqxukFd/
kn7htDN7QlNn4BlCpLr8NZUugGE7vHm7VTDYm1w9qqAbvTv1D17jNZ5m8lxn8Gxl
/LNzTq2qsQh0eWr29jzQFmfaFQE=
-----END CERTIFICATE-----
Certificate:
    Data:
        Version: 3 (0x2)
        Serial Number: 1 (0x1)
    Signature Algorithm: sha256WithRSAEncryption
        Issuer: C=CN, ST=GS, L=LZ, O=LZUiversity, OU=ETS, CN=RootCA2/emailAddress=RootCA2@lzu.cn
        Validity
            Not Before: Sep 16 14:47:04 2018 GMT
            Not After : Sep 16 14:47:04 2019 GMT
        Subject: C=CN, ST=GS, L=LZ, O=LZUiversity, OU=ETS, CN=RootCA3/emailAddress=RootCA3@lzu.cn
        Subject Public Key Info:
            Public Key Algorithm: rsaEncryption
                Public-Key: (2048 bit)
                Modulus:
                    00:b7:c5:03:5f:73:56:95:97:ff:3f:6b:31:da:83:
                    e7:26:e4:fb:bd:8d:94:e6:31:61:a8:63:cf:4e:58:
                    e6:3a:14:fb:50:4c:2b:16:d8:a0:59:1f:9e:67:04:
                    8e:7e:a0:a6:2c:88:02:35:3e:ab:04:0d:3a:04:12:
                    64:7a:29:57:ac:57:93:0d:6c:21:5a:9f:48:f2:5d:
                    68:40:26:43:f8:d0:f5:f2:cc:79:ae:d2:cf:52:63:
                    93:27:de:c4:9c:f5:c5:3c:cb:23:10:30:1d:12:25:
                    42:2b:5e:c7:0e:f4:96:05:ae:b6:fe:3f:89:68:63:
                    da:57:56:72:94:9a:ec:cc:c0:e0:72:e9:e5:94:1e:
                    05:eb:98:33:c4:8d:d5:e0:99:3c:7b:4a:b8:ee:e0:
                    08:c7:ae:ef:fb:2f:03:ab:fe:b8:ad:c2:44:dc:71:
                    19:78:61:29:d7:02:a6:1c:d7:20:e1:cf:c8:b5:49:
                    09:88:72:52:87:4a:80:69:0f:f2:e7:24:bb:8d:93:
                    59:14:64:48:c8:10:76:e3:ff:c1:ee:9c:f6:5f:24:
                    2b:34:06:f7:a3:bc:34:68:ae:9a:56:a8:cc:d2:75:
                    e9:99:fb:2e:75:d7:d5:c3:7a:1e:8f:08:1f:c3:f2:
                    ed:6f:2d:45:51:e9:4a:5f:c3:97:47:d5:d9:68:75:
                    ac:d1
                Exponent: 65537 (0x10001)
        X509v3 extensions:
            X509v3 Subject Key Identifier: 
                DD:86:3B:92:27:24:99:CB:01:A3:47:29:D2:F1:F6:76:5B:43:79:BF
            X509v3 Authority Key Identifier: 
                keyid:0E:FA:EE:36:CC:57:EE:1F:A1:6E:7A:9D:EA:07:85:21:FA:61:81:61

            X509v3 Basic Constraints: 
                CA:TRUE
            X509v3 Key Usage: 
                Certificate Sign
    Signature Algorithm: sha256WithRSAEncryption
         83:e8:fb:3b:a4:cc:d3:50:c3:af:de:bb:34:3e:62:8f:76:1b:
         84:f4:61:1c:fa:74:2f:b9:fe:2a:4f:8f:de:25:7e:19:ca:24:
         83:dc:6d:08:b5:fc:4d:46:7e:81:13:60:bb:63:de:10:60:37:
         05:8d:82:ba:0e:d2:83:ec:50:ab:9e:d8:27:32:49:95:c8:55:
         59:c3:5b:95:d3:51:cd:ab:f9:91:63:e4:27:d8:7b:11:50:46:
         c5:bb:a3:15:59:f1:0f:11:c1:4e:ed:4f:43:c8:a5:0f:71:23:
         09:c8:89:8b:5f:a4:8e:12:ba:06:9c:f4:4e:db:dd:bc:7d:40:
         1f:d7:c0:d2:17:34:56:13:90:1f:d0:5a:75:8e:09:1e:d7:0d:
         96:28:d9:70:34:7f:51:30:c2:fb:27:0c:69:01:39:78:f5:bf:
         ce:77:5e:9d:f7:b1:e6:68:fa:3e:90:c1:e1:bf:ff:55:69:6a:
         92:51:78:44:8a:f9:d1:c9:e9:61:37:ab:d2:b3:11:52:ce:67:
         bf:3a:be:46:92:3f:e0:da:50:d6:e8:dd:ab:8e:2a:91:19:f0:
         2a:19:fe:08:68:7e:d1:cf:5f:76:d0:05:83:c3:ce:5f:7a:1b:
         53:18:35:72:39:46:81:f3:22:6c:57:86:3d:6a:e3:b0:ac:c2:
         df:07:a9:8f
-----BEGIN CERTIFICATE-----
MIID0DCCArigAwIBAgIBATANBgkqhkiG9w0BAQsFADB8MQswCQYDVQQGEwJDTjEL
MAkGA1UECAwCR1MxCzAJBgNVBAcMAkxaMRQwEgYDVQQKDAtMWlVpdmVyc2l0eTEM
MAoGA1UECwwDRVRTMRAwDgYDVQQDDAdSb290Q0EyMR0wGwYJKoZIhvcNAQkBFg5S
b290Q0EyQGx6dS5jbjAeFw0xODA5MTYxNDQ3MDRaFw0xOTA5MTYxNDQ3MDRaMHwx
CzAJBgNVBAYTAkNOMQswCQYDVQQIDAJHUzELMAkGA1UEBwwCTFoxFDASBgNVBAoM
C0xaVWl2ZXJzaXR5MQwwCgYDVQQLDANFVFMxEDAOBgNVBAMMB1Jvb3RDQTMxHTAb
BgkqhkiG9w0BCQEWDlJvb3RDQTNAbHp1LmNuMIIBIjANBgkqhkiG9w0BAQEFAAOC
AQ8AMIIBCgKCAQEAt8UDX3NWlZf/P2sx2oPnJuT7vY2U5jFhqGPPTljmOhT7UEwr
FtigWR+eZwSOfqCmLIgCNT6rBA06BBJkeilXrFeTDWwhWp9I8l1oQCZD+ND18sx5
rtLPUmOTJ97EnPXFPMsjEDAdEiVCK17HDvSWBa62/j+JaGPaV1ZylJrszMDgcunl
lB4F65gzxI3V4Jk8e0q47uAIx67v+y8Dq/64rcJE3HEZeGEp1wKmHNcg4c/ItUkJ
iHJSh0qAaQ/y5yS7jZNZFGRIyBB24//B7pz2XyQrNAb3o7w0aK6aVqjM0nXpmfsu
ddfVw3oejwgfw/Ltby1FUelKX8OXR9XZaHWs0QIDAQABo10wWzAdBgNVHQ4EFgQU
3YY7kickmcsBo0cp0vH2dltDeb8wHwYDVR0jBBgwFoAUDvruNsxX7h+hbnqd6geF
IfphgWEwDAYDVR0TBAUwAwEB/zALBgNVHQ8EBAMCAgQwDQYJKoZIhvcNAQELBQAD
ggEBAIPo+zukzNNQw6/euzQ+Yo92G4T0YRz6dC+5/ipPj94lfhnKJIPcbQi1/E1G
foETYLtj3hBgNwWNgroO0oPsUKue2CcySZXIVVnDW5XTUc2r+ZFj5CfYexFQRsW7
oxVZ8Q8RwU7tT0PIpQ9xIwnIiYtfpI4Sugac9E7b3bx9QB/XwNIXNFYTkB/QWnWO
CR7XDZYo2XA0f1EwwvsnDGkBOXj1v853Xp33seZo+j6QweG//1VpapJReESK+dHJ
6WE3q9KzEVLOZ786vkaSP+DaUNbo3auOKpEZ8CoZ/ghoftHPX3bQBYPDzl96G1MY
NXI5RoHzImxXhj1q47Cswt8HqY8=
-----END CERTIFICATE-----
Certificate:
    Data:
        Version: 3 (0x2)
        Serial Number: 1 (0x1)
    Signature Algorithm: sha256WithRSAEncryption
        Issuer: C=CN, ST=GS, L=LZ, O=LZUiversity, OU=ETS, CN=RootCA3/emailAddress=RootCA3@lzu.cn
        Validity
            Not Before: Sep 16 14:47:05 2018 GMT
            Not After : Sep 16 14:47:05 2019 GMT
        Subject: C=CN, ST=GS, L=LZ, O=LZUiversity, OU=ETS, CN=RootCA4/emailAddress=RootCA4@lzu.cn
        Subject Public Key Info:
            Public Key Algorithm: rsaEncryption
                Public-Key: (2048 bit)
                Modulus:
                    00:b4:4a:61:46:67:bf:a2:67:0c:2b:56:86:16:5f:
                    18:7a:38:82:7f:89:ca:ae:0b:36:07:cc:73:32:3e:
                    97:b0:04:0d:81:aa:3d:14:9d:ee:db:2b:21:67:87:
                    cc:df:9f:3c:ee:7e:81:19:a5:81:58:80:82:5c:c5:
                    37:02:b9:7c:15:e6:05:4a:66:8b:97:0e:e6:4e:c5:
                    c5:2a:f7:07:ff:99:89:10:42:75:ad:b5:3e:66:cd:
                    61:15:88:0b:01:b2:38:63:3e:ad:ba:98:e7:17:f0:
                    b4:9b:3b:7a:c9:2f:46:1b:82:98:4d:ee:ec:09:98:
                    4e:ee:a9:17:1d:04:e8:c8:65:76:f3:3c:08:37:5d:
                    fd:d0:d1:fd:ba:e8:3b:2e:0d:e4:de:aa:d6:0c:fb:
                    8b:af:93:02:8e:c5:ea:45:7d:f4:75:1d:a0:a5:a7:
                    32:ce:2f:14:31:78:2a:c0:ca:ee:ba:ef:c7:a1:d3:
                    2b:e5:44:fb:bf:77:2c:47:30:63:f8:a1:eb:32:9f:
                    11:ad:fc:21:5a:bb:67:e2:51:a4:8e:5d:a7:f4:a2:
                    96:6a:9c:1c:ec:b1:69:00:08:0a:16:d2:08:38:d2:
                    af:6a:1f:21:d9:42:fa:7b:6f:96:12:49:d9:db:e1:
                    54:e3:c0:ee:bc:82:6f:fa:fe:b1:83:46:0f:c9:c6:
                    25:e5
                Exponent: 65537 (0x10001)
        X509v3 extensions:
            X509v3 Subject Key Identifier: 
                60:5C:CE:DC:E5:4C:84:BB:82:C2:05:67:60:37:00:C1:7D:2B:C8:D9
            X509v3 Authority Key Identifier: 
                keyid:DD:86:3B:92:27:24:99:CB:01:A3:47:29:D2:F1:F6:76:5B:43:79:BF

            X509v3 Basic Constraints: 
                CA:TRUE
            X509v3 Key Usage: 
                Certificate Sign
    Signature Algorithm: sha256WithRSAEncryption
         45:0a:09:ce:19:04:b7:76:cc:50:9f:43:b8:28:a3:3b:8a:5b:
         a4:48:28:42:ad:e9:52:3d:ee:26:61:08:ac:79:b7:70:4d:82:
         71:0f:ee:5d:55:ba:c4:c9:07:0d:d7:71:82:96:e3:38:25:59:
         aa:d2:b6:a6:b1:be:cb:9b:67:c6:28:f1:81:84:aa:53:fc:50:
         91:a8:d5:96:0a:72:44:de:91:bf:8b:62:8c:84:7a:a2:1a:4e:
         c1:df:41:a0:63:fd:c5:1d:9e:b5:42:22:a0:1f:68:58:e7:2e:
         8c:a2:2f:5e:65:b7:e4:d5:a8:b6:34:72:84:92:d6:4b:50:8d:
         80:7f:39:e2:04:76:b3:d1:cc:89:a8:11:e5:e7:1f:39:ec:66:
         42:a2:b4:1c:8a:d0:62:61:3b:f3:29:ed:04:a8:e6:34:ab:16:
         ae:bb:46:bb:e6:cc:5c:0b:18:51:48:89:bb:fa:c4:cf:2e:bc:
         c8:53:95:f9:eb:f0:a7:04:c0:9b:ac:d2:58:18:54:4d:94:bc:
         82:f2:ad:d8:66:6f:9a:e9:87:75:93:cd:35:fc:08:b1:79:85:
         c9:7a:60:21:cd:54:70:10:f4:91:9e:9b:0f:b3:db:9d:84:1f:
         95:bf:76:d0:16:ff:00:8d:00:a4:be:82:79:93:90:7f:f8:23:
         9b:1f:09:6e
-----BEGIN CERTIFICATE-----
MIID0DCCArigAwIBAgIBATANBgkqhkiG9w0BAQsFADB8MQswCQYDVQQGEwJDTjEL
MAkGA1UECAwCR1MxCzAJBgNVBAcMAkxaMRQwEgYDVQQKDAtMWlVpdmVyc2l0eTEM
MAoGA1UECwwDRVRTMRAwDgYDVQQDDAdSb290Q0EzMR0wGwYJKoZIhvcNAQkBFg5S
b290Q0EzQGx6dS5jbjAeFw0xODA5MTYxNDQ3MDVaFw0xOTA5MTYxNDQ3MDVaMHwx
CzAJBgNVBAYTAkNOMQswCQYDVQQIDAJHUzELMAkGA1UEBwwCTFoxFDASBgNVBAoM
C0xaVWl2ZXJzaXR5MQwwCgYDVQQLDANFVFMxEDAOBgNVBAMMB1Jvb3RDQTQxHTAb
BgkqhkiG9w0BCQEWDlJvb3RDQTRAbHp1LmNuMIIBIjANBgkqhkiG9w0BAQEFAAOC
AQ8AMIIBCgKCAQEAtEphRme/omcMK1aGFl8YejiCf4nKrgs2B8xzMj6XsAQNgao9
FJ3u2yshZ4fM35887n6BGaWBWICCXMU3Arl8FeYFSmaLlw7mTsXFKvcH/5mJEEJ1
rbU+Zs1hFYgLAbI4Yz6tupjnF/C0mzt6yS9GG4KYTe7sCZhO7qkXHQToyGV28zwI
N1390NH9uug7Lg3k3qrWDPuLr5MCjsXqRX30dR2gpacyzi8UMXgqwMruuu/HodMr
5UT7v3csRzBj+KHrMp8RrfwhWrtn4lGkjl2n9KKWapwc7LFpAAgKFtIIONKvah8h
2UL6e2+WEknZ2+FU48DuvIJv+v6xg0YPycYl5QIDAQABo10wWzAdBgNVHQ4EFgQU
YFzO3OVMhLuCwgVnYDcAwX0ryNkwHwYDVR0jBBgwFoAU3YY7kickmcsBo0cp0vH2
dltDeb8wDAYDVR0TBAUwAwEB/zALBgNVHQ8EBAMCAgQwDQYJKoZIhvcNAQELBQAD
ggEBAEUKCc4ZBLd2zFCfQ7goozuKW6RIKEKt6VI97iZhCKx5t3BNgnEP7l1VusTJ
Bw3XcYKW4zglWarStqaxvsubZ8Yo8YGEqlP8UJGo1ZYKckTekb+LYoyEeqIaTsHf
QaBj/cUdnrVCIqAfaFjnLoyiL15lt+TVqLY0coSS1ktQjYB/OeIEdrPRzImoEeXn
HznsZkKitByK0GJhO/Mp7QSo5jSrFq67RrvmzFwLGFFIibv6xM8uvMhTlfnr8KcE
wJus0lgYVE2UvILyrdhmb5rph3WTzTX8CLF5hcl6YCHNVHAQ9JGemw+z252EH5W/
dtAW/wCNAKS+gnmTkH/4I5sfCW4=
-----END CERTIFICATE-----
