Certificate:
    Data:
        Version: 3 (0x2)
        Serial Number: 2 (0x2)
    Signature Algorithm: sha256WithRSAEncryption
        Issuer: C=CN, ST=GS, L=LZ, O=LZUiversity, OU=ETS, CN=RootCA5/emailAddress=RootCA5@lzu.cn
        Validity
            Not Before: Sep 16 14:47:05 2018 GMT
            Not After : Sep 16 14:47:05 2019 GMT
        Subject: C=CN, ST=GS, L=LZ, O=LZUiversity, OU=ETS, CN=Server/emailAddress=RootCA5@lzu.cn
        Subject Public Key Info:
            Public Key Algorithm: rsaEncryption
                Public-Key: (2048 bit)
                Modulus:
                    00:bb:9a:9c:56:98:95:44:ce:35:65:b0:63:a2:a5:
                    07:0c:b5:16:c5:9d:f0:37:71:11:d9:9e:3e:a6:36:
                    e8:18:d3:82:58:fd:92:fd:39:60:87:66:21:8c:a9:
                    8f:fe:89:cd:db:4f:3b:a5:d8:44:d2:67:0b:e4:01:
                    1a:b5:cc:23:e3:29:ab:a6:af:4a:26:dd:4e:68:ba:
                    00:97:64:1e:92:2c:cd:b4:9a:d3:4b:cb:04:4a:5e:
                    ad:25:13:c5:47:81:cd:56:3c:83:fa:57:51:cf:87:
                    3d:3e:3c:65:a3:ab:dd:f2:68:e8:c9:5c:6c:b1:67:
                    af:b7:81:4b:e5:d7:23:19:5e:75:74:cb:80:ad:21:
                    59:34:40:b3:10:ee:bf:fd:aa:ce:b8:ac:eb:9a:c7:
                    c6:23:fb:7b:43:20:93:a6:36:68:eb:f5:5e:8d:53:
                    86:78:ff:53:77:04:d5:24:7e:f6:ce:b8:84:7d:6f:
                    22:7f:3c:58:6f:e3:db:c1:fe:23:00:50:94:d8:2c:
                    fc:f2:f2:ed:a3:16:04:12:7b:eb:6e:ed:79:ad:5d:
                    d2:c2:74:98:20:02:3b:8c:06:2b:82:b6:78:d3:45:
                    dc:d6:a5:dc:39:1c:7d:fc:e7:89:50:02:8a:0b:6c:
                    0e:99:86:63:38:7d:1e:6b:6d:19:9d:ad:0b:3f:03:
                    b9:97
                Exponent: 65537 (0x10001)
        X509v3 extensions:
            X509v3 Basic Constraints: 
                CA:FALSE
            Netscape Comment: 
                OpenSSL Generated Certificate
            X509v3 Subject Key Identifier: 
                51:55:0F:C8:D9:8A:15:82:9A:74:BA:AC:1B:AF:1B:2C:DD:C1:6C:1A
            X509v3 Authority Key Identifier: 
                keyid:C0:2F:F8:FC:CF:85:78:D9:E0:D8:F9:CE:C1:D9:4B:2E:54:38:5D:6C

    Signature Algorithm: sha256WithRSAEncryption
         61:ec:5b:90:42:8c:aa:7c:51:49:3b:6b:35:28:44:ee:c9:c9:
         01:f7:19:fd:fc:7c:ff:84:55:14:da:0e:70:26:0f:31:25:d3:
         73:58:59:59:d1:87:49:cd:fa:60:b2:cb:19:e9:f3:bf:ca:ad:
         b5:19:1b:58:52:a5:39:b0:b2:c1:a8:ff:76:db:a7:63:7f:60:
         2a:9c:3e:60:64:43:1c:11:cc:92:7f:a3:52:58:df:58:21:13:
         d5:78:78:d7:d8:bf:3b:df:fa:21:0b:32:ce:49:c1:c4:e5:a1:
         50:33:4f:96:a1:67:3c:65:11:96:56:38:c2:ff:7a:5e:f3:17:
         7f:27:1c:af:2f:fa:68:f1:8b:58:b5:19:c8:46:0f:67:f3:c6:
         ec:f8:fc:52:80:e5:2d:44:5b:32:7c:7e:b4:fa:82:d3:3e:5c:
         47:7c:96:5e:1e:de:2a:0b:36:65:7d:c0:7d:65:92:f7:f9:1a:
         26:ce:21:6c:bc:e6:28:bc:bf:38:c4:a4:4a:b8:7b:55:50:0f:
         42:74:af:c7:e1:ca:bf:b8:60:05:43:0b:bd:2e:78:75:3f:0e:
         a1:46:69:5c:5e:55:38:63:e2:fd:b3:c8:ea:08:ea:a4:07:5c:
         cb:bc:70:d3:43:1c:95:8c:c5:e0:71:d3:42:61:e0:fe:4e:f9:
         3a:2d:46:39
-----BEGIN CERTIFICATE-----
MIID7TCCAtWgAwIBAgIBAjANBgkqhkiG9w0BAQsFADB8MQswCQYDVQQGEwJDTjEL
MAkGA1UECAwCR1MxCzAJBgNVBAcMAkxaMRQwEgYDVQQKDAtMWlVpdmVyc2l0eTEM
MAoGA1UECwwDRVRTMRAwDgYDVQQDDAdSb290Q0E1MR0wGwYJKoZIhvcNAQkBFg5S
b290Q0E1QGx6dS5jbjAeFw0xODA5MTYxNDQ3MDVaFw0xOTA5MTYxNDQ3MDVaMHsx
CzAJBgNVBAYTAkNOMQswCQYDVQQIDAJHUzELMAkGA1UEBwwCTFoxFDASBgNVBAoM
C0xaVWl2ZXJzaXR5MQwwCgYDVQQLDANFVFMxDzANBgNVBAMMBlNlcnZlcjEdMBsG
CSqGSIb3DQEJARYOUm9vdENBNUBsenUuY24wggEiMA0GCSqGSIb3DQEBAQUAA4IB
DwAwggEKAoIBAQC7mpxWmJVEzjVlsGOipQcMtRbFnfA3cRHZnj6mNugY04JY/ZL9
OWCHZiGMqY/+ic3bTzul2ETSZwvkARq1zCPjKaumr0om3U5ougCXZB6SLM20mtNL
ywRKXq0lE8VHgc1WPIP6V1HPhz0+PGWjq93yaOjJXGyxZ6+3gUvl1yMZXnV0y4Ct
IVk0QLMQ7r/9qs64rOuax8Yj+3tDIJOmNmjr9V6NU4Z4/1N3BNUkfvbOuIR9byJ/
PFhv49vB/iMAUJTYLPzy8u2jFgQSe+tu7XmtXdLCdJggAjuMBiuCtnjTRdzWpdw5
HH3854lQAooLbA6ZhmM4fR5rbRmdrQs/A7mXAgMBAAGjezB5MAkGA1UdEwQCMAAw
LAYJYIZIAYb4QgENBB8WHU9wZW5TU0wgR2VuZXJhdGVkIENlcnRpZmljYXRlMB0G
A1UdDgQWBBRRVQ/I2YoVgpp0uqwbrxss3cFsGjAfBgNVHSMEGDAWgBTAL/j8z4V4
2eDY+c7B2UsuVDhdbDANBgkqhkiG9w0BAQsFAAOCAQEAYexbkEKMqnxRSTtrNShE
7snJAfcZ/fx8/4RVFNoOcCYPMSXTc1hZWdGHSc36YLLLGenzv8qttRkbWFKlObCy
waj/dtunY39gKpw+YGRDHBHMkn+jUljfWCET1Xh419i/O9/6IQsyzknBxOWhUDNP
lqFnPGURllY4wv96XvMXfyccry/6aPGLWLUZyEYPZ/PG7Pj8UoDlLURbMnx+tPqC
0z5cR3yWXh7eKgs2ZX3AfWWS9/kaJs4hbLzmKLy/OMSkSrh7VVAPQnSvx+HKv7hg
BUMLvS54dT8OoUZpXF5VOGPi/bPI6gjqpAdcy7xw00MclYzF4HHTQmHg/k75Oi1G
OQ==
-----END CERTIFICATE-----
