Certificate:
    Data:
        Version: 3 (0x2)
        Serial Number:
            0a:87:fd:92:4d:0e:2f:ed:3a:97:78:05:04:bd:11:17:64:3c:77:5a
        Signature Algorithm: sha256WithRSAEncryption
        Issuer: C=CN, ST=SX, O=IT, OU=Gauss100, CN=RootCA
        Validity
            Not Before: Jan  1 00:00:00 2019 GMT
            Not After : Jan  1 00:00:00 2029 GMT
        Subject: C=CN, ST=SX, O=IT, OU=Gauss100, CN=Server1
        Subject Public Key Info:
            Public Key Algorithm: rsaEncryption
                RSA Public-Key: (2048 bit)
                Modulus:
                    00:e3:ed:73:09:c6:5a:59:7b:0a:90:7a:93:3e:da:
                    a0:47:59:af:3b:16:59:a8:9e:58:02:09:a8:ea:02:
                    5a:40:65:a4:76:32:9d:df:ee:1c:c5:45:4b:26:f5:
                    9a:4e:4e:ee:4e:58:78:6a:8d:28:5e:b8:b2:70:50:
                    27:1f:86:6e:ac:6a:7c:17:13:42:d0:86:55:d1:db:
                    d9:22:ba:a0:bc:6f:dc:21:8f:a5:c7:05:dc:f2:e7:
                    19:b0:43:a6:e4:8b:79:75:51:04:d6:41:1e:d7:3a:
                    9c:3c:38:38:d0:1c:91:38:31:ec:b2:10:3b:1c:93:
                    94:f7:fd:42:af:cf:ca:71:0b:99:db:42:e9:cf:c8:
                    d4:68:a7:f0:be:b9:e5:37:ed:df:bc:ae:aa:7d:25:
                    23:73:b5:29:78:4f:90:90:6d:2e:c5:58:b4:d9:d9:
                    0c:dd:9c:4e:3c:2a:04:ef:cd:d2:ac:82:5d:b1:3c:
                    7c:eb:16:9f:e2:1d:9d:6b:18:f2:6a:dd:59:82:e5:
                    09:67:a0:bf:40:bc:56:cd:73:8b:9a:ec:50:51:e6:
                    91:2c:64:0e:ab:cf:3a:59:43:f5:81:d7:37:c6:38:
                    c6:4d:d0:1d:d6:ac:79:a7:88:8a:d5:35:14:0b:2e:
                    9d:97:c4:ee:84:a7:54:47:de:f0:60:f8:0b:c3:06:
                    98:7f
                Exponent: 65537 (0x10001)
        X509v3 extensions:
            X509v3 Basic Constraints: 
                CA:FALSE
            Netscape Comment: 
                OpenSSL Generated Certificate
            X509v3 Subject Key Identifier: 
                2E:C2:F9:E5:E8:0E:9D:FB:C9:81:FB:11:38:11:A4:7F:F8:FA:AA:60
            X509v3 Authority Key Identifier: 
                keyid:3A:86:6B:79:BE:0F:07:84:CF:47:42:A1:AB:E6:04:F4:71:4B:57:29

    Signature Algorithm: sha256WithRSAEncryption
         30:aa:e0:87:3b:a0:e1:a8:b0:ad:59:21:1a:0b:4d:d2:07:d5:
         21:b2:ee:9a:30:18:e9:d1:16:18:74:c1:8a:df:2a:fb:23:1f:
         ab:ab:79:cd:c4:6c:56:6c:13:6e:33:0d:01:37:16:24:2a:c4:
         f6:f7:8f:33:a2:ec:bb:80:df:86:de:cc:bf:7d:9b:9a:b2:a7:
         e2:28:09:01:2f:ea:94:f8:aa:66:71:bc:29:3e:f8:df:bb:19:
         18:e8:52:a5:ae:e8:62:71:f2:27:f9:76:1c:6e:15:3f:3e:03:
         85:98:3f:ff:0e:34:4b:db:dc:af:9c:c0:36:1a:a9:f2:3e:c4:
         42:4f:5d:fd:50:e2:5f:b2:ac:c0:ef:c7:77:76:5c:4b:93:f4:
         93:a5:1c:ad:01:3c:71:70:65:98:27:bd:42:5b:98:c8:85:13:
         12:1c:85:36:96:c1:a4:e8:66:47:de:8e:4c:6a:af:2f:3f:62:
         41:b7:de:cd:8a:11:da:83:fa:bb:92:3d:88:a2:84:ef:6f:13:
         de:f8:d2:3d:c7:2d:cd:69:9d:a4:de:90:e8:81:59:6d:ef:13:
         07:2d:2e:35:b7:33:91:fa:46:2c:b8:b6:27:e3:aa:6f:8e:b2:
         e9:3e:25:12:0e:b6:e3:1b:7c:58:ac:95:52:cd:52:9c:ea:dc:
         5c:f2:39:b3
-----BEGIN CERTIFICATE-----
MIIDoDCCAoigAwIBAgIUCof9kk0OL+06l3gFBL0RF2Q8d1owDQYJKoZIhvcNAQEL
BQAwSzELMAkGA1UEBhMCQ04xCzAJBgNVBAgMAlNYMQswCQYDVQQKDAJJVDERMA8G
A1UECwwIR2F1c3MxMDAxDzANBgNVBAMMBlJvb3RDQTAeFw0xOTAxMDEwMDAwMDBa
Fw0yOTAxMDEwMDAwMDBaMEwxCzAJBgNVBAYTAkNOMQswCQYDVQQIDAJTWDELMAkG
A1UECgwCSVQxETAPBgNVBAsMCEdhdXNzMTAwMRAwDgYDVQQDDAdTZXJ2ZXIxMIIB
IjANBgkqhkiG9w0BAQEFAAOCAQ8AMIIBCgKCAQEA4+1zCcZaWXsKkHqTPtqgR1mv
OxZZqJ5YAgmo6gJaQGWkdjKd3+4cxUVLJvWaTk7uTlh4ao0oXriycFAnH4ZurGp8
FxNC0IZV0dvZIrqgvG/cIY+lxwXc8ucZsEOm5It5dVEE1kEe1zqcPDg40ByRODHs
shA7HJOU9/1Cr8/KcQuZ20Lpz8jUaKfwvrnlN+3fvK6qfSUjc7UpeE+QkG0uxVi0
2dkM3ZxOPCoE783SrIJdsTx86xaf4h2daxjyat1ZguUJZ6C/QLxWzXOLmuxQUeaR
LGQOq886WUP1gdc3xjjGTdAd1qx5p4iK1TUUCy6dl8TuhKdUR97wYPgLwwaYfwID
AQABo3sweTAJBgNVHRMEAjAAMCwGCWCGSAGG+EIBDQQfFh1PcGVuU1NMIEdlbmVy
YXRlZCBDZXJ0aWZpY2F0ZTAdBgNVHQ4EFgQULsL55egOnfvJgfsROBGkf/j6qmAw
HwYDVR0jBBgwFoAUOoZreb4PB4TPR0Khq+YE9HFLVykwDQYJKoZIhvcNAQELBQAD
ggEBADCq4Ic7oOGosK1ZIRoLTdIH1SGy7powGOnRFhh0wYrfKvsjH6urec3EbFZs
E24zDQE3FiQqxPb3jzOi7LuA34bezL99m5qyp+IoCQEv6pT4qmZxvCk++N+7GRjo
UqWu6GJx8if5dhxuFT8+A4WYP/8ONEvb3K+cwDYaqfI+xEJPXf1Q4l+yrMDvx3d2
XEuT9JOlHK0BPHFwZZgnvUJbmMiFExIchTaWwaToZkfejkxqry8/YkG33s2KEdqD
+ruSPYiihO9vE9740j3HLc1pnaTekOiBWW3vEwctLjW3M5H6Riy4tifjqm+Osuk+
JRIOtuMbfFislVLNUpzq3FzyObM=
-----END CERTIFICATE-----
